target datalayout = "e-m:e-p270:32:32-p271:32:32-p272:64:64-i64:64-i128:128-f80:128-n8:16:32:64-S128"
target triple = "x86_64-unknown-linux-gnu"

%"class.icu_75::UObject" = type { ptr }
%"class.icu_75::Locale" = type <{ %"class.icu_75::UObject", [12 x i8], [6 x i8], [4 x i8], [2 x i8], i32, [4 x i8], ptr, [157 x i8], [3 x i8], ptr, i8, [7 x i8] }>
%"class.icu_75::MeasureFormat" = type { %"class.icu_75::Format.base", ptr, ptr, ptr, i32, ptr }
%"class.icu_75::Format.base" = type <{ %"class.icu_75::UObject", [157 x i8], [157 x i8] }>

; Function Attrs: mustprogress nounwind uwtable
define internal noundef signext i8 @_ZL9U_SUCCESS10UErrorCode(i32 noundef %code) #0 {
entry:
  %code.addr = alloca i32, align 4
  store i32 %code, ptr %code.addr, align 4
  %0 = load i32, ptr %code.addr, align 4
  %cmp = icmp sle i32 %0, 0
  %conv = zext i1 %cmp to i8
  ret i8 %conv
}

; Function Attrs: mustprogress uwtable
define void @_ZNK6icu_7513MeasureFormat9getLocaleER10UErrorCode(ptr noalias sret(%"class.icu_75::Locale") align 8 %agg.result, ptr noundef nonnull align 8 dereferenceable(368) %this, ptr noundef nonnull align 4 dereferenceable(4) %status) #1 align 2 {
entry:
  %result.ptr = alloca ptr, align 8
  %this.addr = alloca ptr, align 8
  %status.addr = alloca ptr, align 8
  store ptr %agg.result, ptr %result.ptr, align 8
  store ptr %this, ptr %this.addr, align 8
  store ptr %status, ptr %status.addr, align 8
  %this1 = load ptr, ptr %this.addr, align 8
  %0 = load ptr, ptr %status.addr, align 8
  call void @_ZNK6icu_756Format9getLocaleE18ULocDataLocaleTypeR10UErrorCode(ptr sret(%"class.icu_75::Locale") align 8 %agg.result, ptr noundef nonnull align 8 dereferenceable(322) %this1, i32 noundef 1, ptr noundef nonnull align 4 dereferenceable(4) %0)
  ret void
}

; Function Attrs: mustprogress nounwind uwtable
define internal noundef signext i8 @_ZL9U_FAILURE10UErrorCode(i32 noundef %code) #0 {
entry:
  %code.addr = alloca i32, align 4
  store i32 %code, ptr %code.addr, align 4
  %0 = load i32, ptr %code.addr, align 4
  %cmp = icmp sgt i32 %0, 0
  %conv = zext i1 %cmp to i8
  ret i8 %conv
}

; Function Attrs: mustprogress uwtable
define noundef signext i8 @_ZN6icu_7513MeasureFormat22setMeasureFormatLocaleERKNS_6LocaleER10UErrorCode(ptr noundef nonnull align 8 dereferenceable(368) %this, ptr noundef nonnull align 8 dereferenceable(217) %locale, ptr noundef nonnull align 4 dereferenceable(4) %status) #1 align 2 personality ptr @__gxx_personality_v0 {
entry:
  %retval = alloca i8, align 1
  %this.addr = alloca ptr, align 8
  %locale.addr = alloca ptr, align 8
  %status.addr = alloca ptr, align 8
  %ref.tmp = alloca %"class.icu_75::Locale", align 8
  %cleanup.cond = alloca i1, align 1
  %exn.slot = alloca ptr, align 8
  %ehselector.slot = alloca i32, align 4
  store ptr %this, ptr %this.addr, align 8
  store ptr %locale, ptr %locale.addr, align 8
  store ptr %status, ptr %status.addr, align 8
  %this1 = load ptr, ptr %this.addr, align 8
  %0 = load ptr, ptr %status.addr, align 8
  %1 = load i32, ptr %0, align 4
  %call = call noundef signext i8 @_ZL9U_FAILURE10UErrorCode(i32 noundef %1)
  %tobool = icmp ne i8 %call, 0
  store i1 false, ptr %cleanup.cond, align 1
  br i1 %tobool, label %lor.end, label %lor.rhs

lor.rhs:                                          ; preds = %entry
  %2 = load ptr, ptr %locale.addr, align 8
  %3 = load ptr, ptr %status.addr, align 8
  call void @_ZNK6icu_7513MeasureFormat9getLocaleER10UErrorCode(ptr sret(%"class.icu_75::Locale") align 8 %ref.tmp, ptr noundef nonnull align 8 dereferenceable(368) %this1, ptr noundef nonnull align 4 dereferenceable(4) %3)
  store i1 true, ptr %cleanup.cond, align 1
  %call2 = invoke noundef zeroext i1 @_ZNK6icu_756LocaleeqERKS0_(ptr noundef nonnull align 8 dereferenceable(217) %2, ptr noundef nonnull align 8 dereferenceable(217) %ref.tmp)
          to label %invoke.cont unwind label %lpad

invoke.cont:                                      ; preds = %lor.rhs
  br label %lor.end

lor.end:                                          ; preds = %invoke.cont, %entry
  %4 = phi i1 [ true, %entry ], [ %call2, %invoke.cont ]
  %cleanup.is_active = load i1, ptr %cleanup.cond, align 1
  br i1 %cleanup.is_active, label %cleanup.action, label %cleanup.done

cleanup.action:                                   ; preds = %lor.end
  call void @_ZN6icu_756LocaleD1Ev(ptr noundef nonnull align 8 dereferenceable(217) %ref.tmp) #12
  br label %cleanup.done

cleanup.done:                                     ; preds = %cleanup.action, %lor.end
  br i1 %4, label %if.then, label %if.end

if.then:                                          ; preds = %cleanup.done
  store i8 0, ptr %retval, align 1
  br label %return

lpad:                                             ; preds = %lor.rhs
  %5 = landingpad { ptr, i32 }
          cleanup
  %6 = extractvalue { ptr, i32 } %5, 0
  store ptr %6, ptr %exn.slot, align 8
  %7 = extractvalue { ptr, i32 } %5, 1
  store i32 %7, ptr %ehselector.slot, align 4
  %cleanup.is_active3 = load i1, ptr %cleanup.cond, align 1
  br i1 %cleanup.is_active3, label %cleanup.action4, label %cleanup.done5

cleanup.action4:                                  ; preds = %lpad
  call void @_ZN6icu_756LocaleD1Ev(ptr noundef nonnull align 8 dereferenceable(217) %ref.tmp) #12
  br label %cleanup.done5

cleanup.done5:                                    ; preds = %cleanup.action4, %lpad
  br label %eh.resume

if.end:                                           ; preds = %cleanup.done
  %8 = load ptr, ptr %locale.addr, align 8
  %fWidth = getelementptr inbounds %"class.icu_75::MeasureFormat", ptr %this1, i32 0, i32 4
  %9 = load i32, ptr %fWidth, align 8
  %10 = load ptr, ptr %status.addr, align 8
  call void @_ZN6icu_7513MeasureFormat17initMeasureFormatERKNS_6LocaleE19UMeasureFormatWidthPNS_12NumberFormatER10UErrorCode(ptr noundef nonnull align 8 dereferenceable(368) %this1, ptr noundef nonnull align 8 dereferenceable(217) %8, i32 noundef %9, ptr noundef null, ptr noundef nonnull align 4 dereferenceable(4) %10)
  %11 = load ptr, ptr %status.addr, align 8
  %12 = load i32, ptr %11, align 4
  %call6 = call noundef signext i8 @_ZL9U_SUCCESS10UErrorCode(i32 noundef %12)
  store i8 %call6, ptr %retval, align 1
  br label %return

return:                                           ; preds = %if.end, %if.then
  %13 = load i8, ptr %retval, align 1
  ret i8 %13

eh.resume:                                        ; preds = %cleanup.done5
  %exn = load ptr, ptr %exn.slot, align 8
  %sel = load i32, ptr %ehselector.slot, align 4
  %lpad.val = insertvalue { ptr, i32 } poison, ptr %exn, 0
  %lpad.val7 = insertvalue { ptr, i32 } %lpad.val, i32 %sel, 1
  resume { ptr, i32 } %lpad.val7
}