; Function Attrs: mustprogress uwtable
define noundef signext i8 @_ZN6icu_7513MeasureFormat22setMeasureFormatLocaleERKNS_6LocaleER10UErrorCode(ptr noundef nonnull align 8 dereferenceable(368) %this, ptr noundef nonnull align 8 dereferenceable(217) %locale, ptr noundef nonnull align 4 dereferenceable(4) %status) local_unnamed_addr #1 align 2 personality ptr @__gxx_personality_v0 {
entry:
  %ref.tmp = alloca %"class.icu_75::Locale", align 8
  %0 = load i32, ptr %status, align 4
  %cmp.i = icmp slt i32 %0, 1
  br i1 %cmp.i, label %lor.rhs, label %return

lor.rhs:                                          ; preds = %entry
  call void @_ZNK6icu_756Format9getLocaleE18ULocDataLocaleTypeR10UErrorCode(ptr nonnull sret(%"class.icu_75::Locale") align 8 %ref.tmp, ptr noundef nonnull align 8 dereferenceable(322) %this, i32 noundef 1, ptr noundef nonnull align 4 dereferenceable(4) %status)
  %call2 = invoke noundef zeroext i1 @_ZNK6icu_756LocaleeqERKS0_(ptr noundef nonnull align 8 dereferenceable(217) %locale, ptr noundef nonnull align 8 dereferenceable(217) %ref.tmp)
          to label %cleanup.done unwind label %lpad

cleanup.done:                                     ; preds = %lor.rhs
  call void @_ZN6icu_756LocaleD1Ev(ptr noundef nonnull align 8 dereferenceable(217) %ref.tmp) #16
  br i1 %call2, label %return, label %if.end

lpad:                                             ; preds = %lor.rhs
  %1 = landingpad { ptr, i32 }
          cleanup
  call void @_ZN6icu_756LocaleD1Ev(ptr noundef nonnull align 8 dereferenceable(217) %ref.tmp) #16
  resume { ptr, i32 } %1

if.end:                                           ; preds = %cleanup.done
  %fWidth = getelementptr inbounds i8, ptr %this, i64 352
  %2 = load i32, ptr %fWidth, align 8
  call void @_ZN6icu_7513MeasureFormat17initMeasureFormatERKNS_6LocaleE19UMeasureFormatWidthPNS_12NumberFormatER10UErrorCode(ptr noundef nonnull align 8 dereferenceable(368) %this, ptr noundef nonnull align 8 dereferenceable(217) %locale, i32 noundef %2, ptr noundef null, ptr noundef nonnull align 4 dereferenceable(4) %status)
  %3 = load i32, ptr %status, align 4
  %cmp.i5 = icmp slt i32 %3, 1
  %conv.i6 = zext i1 %cmp.i5 to i8
  br label %return

return:                                           ; preds = %entry, %cleanup.done, %if.end
  %retval.0 = phi i8 [ %conv.i6, %if.end ], [ 0, %cleanup.done ], [ 0, %entry ]
  ret i8 %retval.0
}